target datalayout = "e-m:e-p270:32:32-p271:32:32-p272:64:64-i64:64-i128:128-f80:128-n8:16:32:64-S128"
target triple = "x86_64-pc-linux-gnu"

%struct.expert_field = type { i32, i32 }

@is_uplink = internal global i32 0, align 4
@ei_gsm_a_dtap_extraneous_data = internal global %struct.expert_field zeroinitializer, align 4
@.str.921 = private unnamed_addr constant [21 x i8] c" BC repeat indicator\00", align 1
@.str.922 = private unnamed_addr constant [3 x i8] c" 1\00", align 1
@.str.923 = private unnamed_addr constant [3 x i8] c" 2\00", align 1

; Function Attrs: null_pointer_is_valid sspstrong uwtable
define internal void @dtap_cc_call_conf(ptr noundef %0, ptr noundef %1, ptr noundef %2, i32 noundef %3, i32 noundef %4) #1 {
  %6 = alloca ptr, align 8
  %7 = alloca ptr, align 8
  %8 = alloca ptr, align 8
  %9 = alloca i32, align 4
  %10 = alloca i32, align 4
  %11 = alloca i32, align 4
  %12 = alloca i32, align 4
  %13 = alloca i32, align 4
  %14 = alloca i32, align 4
  store ptr %0, ptr %6, align 8
  store ptr %1, ptr %7, align 8
  store ptr %2, ptr %8, align 8
  store i32 %3, ptr %9, align 4
  store i32 %4, ptr %10, align 4
  call void @llvm.lifetime.start.p0(i64 4, ptr %11) #7
  call void @llvm.lifetime.start.p0(i64 4, ptr %12) #7
  call void @llvm.lifetime.start.p0(i64 4, ptr %13) #7
  %15 = load i32, ptr %9, align 4
  store i32 %15, ptr %11, align 4
  %16 = load i32, ptr %10, align 4
  store i32 %16, ptr %13, align 4
  store i32 1, ptr @is_uplink, align 4
  %17 = load i32, ptr %13, align 4
  %18 = icmp sle i32 %17, 0
  br i1 %18, label %19, label %20

19:                                               ; preds = %5
  store i32 1, ptr %14, align 4
  br label %171

20:                                               ; preds = %5
  %21 = load ptr, ptr %6, align 8
  %22 = load ptr, ptr %7, align 8
  %23 = load ptr, ptr %8, align 8
  %24 = load i32, ptr %11, align 4
  %25 = call zeroext i16 @elem_tv_short(ptr noundef %21, ptr noundef %22, ptr noundef %23, i8 noundef zeroext -48, i32 noundef 1, i32 noundef 43, i32 noundef %24, ptr noundef @.str.921)
  %26 = zext i16 %25 to i32
  store i32 %26, ptr %12, align 4
  %27 = icmp ugt i32 %26, 0
  br i1 %27, label %28, label %35

28:                                               ; preds = %20
  %29 = load i32, ptr %12, align 4
  %30 = load i32, ptr %11, align 4
  %31 = add i32 %30, %29
  store i32 %31, ptr %11, align 4
  %32 = load i32, ptr %12, align 4
  %33 = load i32, ptr %13, align 4
  %34 = sub i32 %33, %32
  store i32 %34, ptr %13, align 4
  br label %35

35:                                               ; preds = %28, %20
  %36 = load i32, ptr %13, align 4
  %37 = icmp sle i32 %36, 0
  br i1 %37, label %38, label %39

38:                                               ; preds = %35
  store i32 1, ptr %14, align 4
  br label %171

39:                                               ; preds = %35
  %40 = load ptr, ptr %6, align 8
  %41 = load ptr, ptr %7, align 8
  %42 = load ptr, ptr %8, align 8
  %43 = load i32, ptr %11, align 4
  %44 = load i32, ptr %13, align 4
  %45 = call zeroext i16 @elem_tlv(ptr noundef %40, ptr noundef %41, ptr noundef %42, i8 noundef zeroext 4, i32 noundef 1, i32 noundef 20, i32 noundef %43, i32 noundef %44, ptr noundef @.str.922)
  %46 = zext i16 %45 to i32
  store i32 %46, ptr %12, align 4
  %47 = icmp ugt i32 %46, 0
  br i1 %47, label %48, label %55

48:                                               ; preds = %39
  %49 = load i32, ptr %12, align 4
  %50 = load i32, ptr %11, align 4
  %51 = add i32 %50, %49
  store i32 %51, ptr %11, align 4
  %52 = load i32, ptr %12, align 4
  %53 = load i32, ptr %13, align 4
  %54 = sub i32 %53, %52
  store i32 %54, ptr %13, align 4
  br label %55

55:                                               ; preds = %48, %39
  %56 = load i32, ptr %13, align 4
  %57 = icmp sle i32 %56, 0
  br i1 %57, label %58, label %59

58:                                               ; preds = %55
  store i32 1, ptr %14, align 4
  br label %171

59:                                               ; preds = %55
  %60 = load ptr, ptr %6, align 8
  %61 = load ptr, ptr %7, align 8
  %62 = load ptr, ptr %8, align 8
  %63 = load i32, ptr %11, align 4
  %64 = load i32, ptr %13, align 4
  %65 = call zeroext i16 @elem_tlv(ptr noundef %60, ptr noundef %61, ptr noundef %62, i8 noundef zeroext 4, i32 noundef 1, i32 noundef 20, i32 noundef %63, i32 noundef %64, ptr noundef @.str.923)
  %66 = zext i16 %65 to i32
  store i32 %66, ptr %12, align 4
  %67 = icmp ugt i32 %66, 0
  br i1 %67, label %68, label %75

68:                                               ; preds = %59
  %69 = load i32, ptr %12, align 4
  %70 = load i32, ptr %11, align 4
  %71 = add i32 %70, %69
  store i32 %71, ptr %11, align 4
  %72 = load i32, ptr %12, align 4
  %73 = load i32, ptr %13, align 4
  %74 = sub i32 %73, %72
  store i32 %74, ptr %13, align 4
  br label %75

75:                                               ; preds = %68, %59
  %76 = load i32, ptr %13, align 4
  %77 = icmp sle i32 %76, 0
  br i1 %77, label %78, label %79

78:                                               ; preds = %75
  store i32 1, ptr %14, align 4
  br label %171

79:                                               ; preds = %75
  %80 = load ptr, ptr %6, align 8
  %81 = load ptr, ptr %7, align 8
  %82 = load ptr, ptr %8, align 8
  %83 = load i32, ptr %11, align 4
  %84 = load i32, ptr %13, align 4
  %85 = call zeroext i16 @elem_tlv(ptr noundef %80, ptr noundef %81, ptr noundef %82, i8 noundef zeroext 8, i32 noundef 1, i32 noundef 27, i32 noundef %83, i32 noundef %84, ptr noundef null)
  %86 = zext i16 %85 to i32
  store i32 %86, ptr %12, align 4
  %87 = icmp ugt i32 %86, 0
  br i1 %87, label %88, label %95

88:                                               ; preds = %79
  %89 = load i32, ptr %12, align 4
  %90 = load i32, ptr %11, align 4
  %91 = add i32 %90, %89
  store i32 %91, ptr %11, align 4
  %92 = load i32, ptr %12, align 4
  %93 = load i32, ptr %13, align 4
  %94 = sub i32 %93, %92
  store i32 %94, ptr %13, align 4
  br label %95

95:                                               ; preds = %88, %79
  %96 = load i32, ptr %13, align 4
  %97 = icmp sle i32 %96, 0
  br i1 %97, label %98, label %99

98:                                               ; preds = %95
  store i32 1, ptr %14, align 4
  br label %171

99:                                               ; preds = %95
  %100 = load ptr, ptr %6, align 8
  %101 = load ptr, ptr %7, align 8
  %102 = load ptr, ptr %8, align 8
  %103 = load i32, ptr %11, align 4
  %104 = load i32, ptr %13, align 4
  %105 = call zeroext i16 @elem_tlv(ptr noundef %100, ptr noundef %101, ptr noundef %102, i8 noundef zeroext 21, i32 noundef 1, i32 noundef 21, i32 noundef %103, i32 noundef %104, ptr noundef null)
  %106 = zext i16 %105 to i32
  store i32 %106, ptr %12, align 4
  %107 = icmp ugt i32 %106, 0
  br i1 %107, label %108, label %115

108:                                              ; preds = %99
  %109 = load i32, ptr %12, align 4
  %110 = load i32, ptr %11, align 4
  %111 = add i32 %110, %109
  store i32 %111, ptr %11, align 4
  %112 = load i32, ptr %12, align 4
  %113 = load i32, ptr %13, align 4
  %114 = sub i32 %113, %112
  store i32 %114, ptr %13, align 4
  br label %115

115:                                              ; preds = %108, %99
  %116 = load i32, ptr %13, align 4
  %117 = icmp sle i32 %116, 0
  br i1 %117, label %118, label %119

118:                                              ; preds = %115
  store i32 1, ptr %14, align 4
  br label %171

119:                                              ; preds = %115
  %120 = load ptr, ptr %6, align 8
  %121 = load ptr, ptr %7, align 8
  %122 = load ptr, ptr %8, align 8
  %123 = load i32, ptr %11, align 4
  %124 = load i32, ptr %13, align 4
  %125 = call zeroext i16 @elem_tlv(ptr noundef %120, ptr noundef %121, ptr noundef %122, i8 noundef zeroext 45, i32 noundef 1, i32 noundef 51, i32 noundef %123, i32 noundef %124, ptr noundef null)
  %126 = zext i16 %125 to i32
  store i32 %126, ptr %12, align 4
  %127 = icmp ugt i32 %126, 0
  br i1 %127, label %128, label %135

128:                                              ; preds = %119
  %129 = load i32, ptr %12, align 4
  %130 = load i32, ptr %11, align 4
  %131 = add i32 %130, %129
  store i32 %131, ptr %11, align 4
  %132 = load i32, ptr %12, align 4
  %133 = load i32, ptr %13, align 4
  %134 = sub i32 %133, %132
  store i32 %134, ptr %13, align 4
  br label %135

135:                                              ; preds = %128, %119
  %136 = load i32, ptr %13, align 4
  %137 = icmp sle i32 %136, 0
  br i1 %137, label %138, label %139

138:                                              ; preds = %135
  store i32 1, ptr %14, align 4
  br label %171

139:                                              ; preds = %135
  %140 = load ptr, ptr %6, align 8
  %141 = load ptr, ptr %7, align 8
  %142 = load ptr, ptr %8, align 8
  %143 = load i32, ptr %11, align 4
  %144 = load i32, ptr %13, align 4
  %145 = call zeroext i16 @elem_tlv(ptr noundef %140, ptr noundef %141, ptr noundef %142, i8 noundef zeroext 64, i32 noundef 1, i32 noundef 54, i32 noundef %143, i32 noundef %144, ptr noundef null)
  %146 = zext i16 %145 to i32
  store i32 %146, ptr %12, align 4
  %147 = icmp ugt i32 %146, 0
  br i1 %147, label %148, label %155

148:                                              ; preds = %139
  %149 = load i32, ptr %12, align 4
  %150 = load i32, ptr %11, align 4
  %151 = add i32 %150, %149
  store i32 %151, ptr %11, align 4
  %152 = load i32, ptr %12, align 4
  %153 = load i32, ptr %13, align 4
  %154 = sub i32 %153, %152
  store i32 %154, ptr %13, align 4
  br label %155

155:                                              ; preds = %148, %139
  %156 = load i32, ptr %13, align 4
  %157 = icmp ugt i32 %156, 0
  br i1 %157, label %158, label %170

158:                                              ; preds = %155
  %159 = load ptr, ptr %7, align 8
  %160 = load ptr, ptr %8, align 8
  %161 = load ptr, ptr %6, align 8
  %162 = load i32, ptr %11, align 4
  %163 = load i32, ptr %13, align 4
  %164 = sub i32 %163, 0
  %165 = call ptr @proto_tree_add_expert(ptr noundef %159, ptr noundef %160, ptr noundef @ei_gsm_a_dtap_extraneous_data, ptr noundef %161, i32 noundef %162, i32 noundef %164)
  %166 = load i32, ptr %13, align 4
  %167 = sub i32 %166, 0
  %168 = load i32, ptr %11, align 4
  %169 = add i32 %168, %167
  store i32 %169, ptr %11, align 4
  br label %170

170:                                              ; preds = %158, %155
  store i32 0, ptr %14, align 4
  br label %171

171:                                              ; preds = %170, %138, %118, %98, %78, %58, %38, %19
  call void @llvm.lifetime.end.p0(i64 4, ptr %13) #7
  call void @llvm.lifetime.end.p0(i64 4, ptr %12) #7
  call void @llvm.lifetime.end.p0(i64 4, ptr %11) #7
  %172 = load i32, ptr %14, align 4
  switch i32 %172, label %174 [
    i32 0, label %173
    i32 1, label %173
  ]

173:                                              ; preds = %171, %171
  ret void

174:                                              ; preds = %171
  unreachable
}